target datalayout = "e-m:e-p270:32:32-p271:32:32-p272:64:64-i64:64-i128:128-f80:128-n8:16:32:64-S128"
target triple = "x86_64-pc-linux-gnu"

%struct.DdNode = type { i32, i32, ptr, %union.anon, i64 }
%union.anon = type { %struct.DdChildren }
%struct.DdChildren = type { ptr, ptr }

; Function Attrs: nounwind uwtable
define i32 @cuddCollectNodes(ptr noundef %0, ptr noundef %1) #0 {
  %3 = alloca i32, align 4
  %4 = alloca ptr, align 8
  %5 = alloca ptr, align 8
  %6 = alloca ptr, align 8
  %7 = alloca ptr, align 8
  %8 = alloca i32, align 4
  store ptr %0, ptr %4, align 8
  store ptr %1, ptr %5, align 8
  %9 = load ptr, ptr %5, align 8
  %10 = load ptr, ptr %4, align 8
  %11 = call i32 @st__lookup(ptr noundef %9, ptr noundef %10, ptr noundef null)
  %12 = icmp eq i32 %11, 1
  br i1 %12, label %13, label %14

13:                                               ; preds = %2
  store i32 1, ptr %3, align 4
  br label %54

14:                                               ; preds = %2
  %15 = load ptr, ptr %4, align 8
  %16 = icmp eq ptr %15, null
  br i1 %16, label %17, label %18

17:                                               ; preds = %14
  store i32 0, ptr %3, align 4
  br label %54

18:                                               ; preds = %14
  %19 = load ptr, ptr %5, align 8
  %20 = load ptr, ptr %4, align 8
  %21 = call i32 @st__add_direct(ptr noundef %19, ptr noundef %20, ptr noundef null)
  %22 = icmp eq i32 %21, -10000
  br i1 %22, label %23, label %24

23:                                               ; preds = %18
  store i32 0, ptr %3, align 4
  br label %54

24:                                               ; preds = %18
  %25 = load ptr, ptr %4, align 8
  %26 = getelementptr inbounds %struct.DdNode, ptr %25, i32 0, i32 0
  %27 = load i32, ptr %26, align 8
  %28 = icmp eq i32 %27, 2147483647
  br i1 %28, label %29, label %30

29:                                               ; preds = %24
  store i32 1, ptr %3, align 4
  br label %54

30:                                               ; preds = %24
  %31 = load ptr, ptr %4, align 8
  %32 = getelementptr inbounds %struct.DdNode, ptr %31, i32 0, i32 3
  %33 = getelementptr inbounds %struct.DdChildren, ptr %32, i32 0, i32 0
  %34 = load ptr, ptr %33, align 8
  store ptr %34, ptr %6, align 8
  %35 = load ptr, ptr %6, align 8
  %36 = load ptr, ptr %5, align 8
  %37 = call i32 @cuddCollectNodes(ptr noundef %35, ptr noundef %36)
  store i32 %37, ptr %8, align 4
  %38 = load i32, ptr %8, align 4
  %39 = icmp ne i32 %38, 1
  br i1 %39, label %40, label %42

40:                                               ; preds = %30
  %41 = load i32, ptr %8, align 4
  store i32 %41, ptr %3, align 4
  br label %54

42:                                               ; preds = %30
  %43 = load ptr, ptr %4, align 8
  %44 = getelementptr inbounds %struct.DdNode, ptr %43, i32 0, i32 3
  %45 = getelementptr inbounds %struct.DdChildren, ptr %44, i32 0, i32 1
  %46 = load ptr, ptr %45, align 8
  %47 = ptrtoint ptr %46 to i64
  %48 = and i64 %47, -2
  %49 = inttoptr i64 %48 to ptr
  store ptr %49, ptr %7, align 8
  %50 = load ptr, ptr %7, align 8
  %51 = load ptr, ptr %5, align 8
  %52 = call i32 @cuddCollectNodes(ptr noundef %50, ptr noundef %51)
  store i32 %52, ptr %8, align 4
  %53 = load i32, ptr %8, align 4
  store i32 %53, ptr %3, align 4
  br label %54

54:                                               ; preds = %42, %40, %29, %23, %17, %13
  %55 = load i32, ptr %3, align 4
  ret i32 %55
}