; Function Attrs: nounwind uwtable
define range(i32 0, 2) i32 @cuddCollectNodes(ptr noundef %0, ptr noundef %1) local_unnamed_addr #0 {
  %3 = tail call i32 @st__lookup(ptr noundef %1, ptr noundef %0, ptr noundef null) #23
  %4 = icmp eq i32 %3, 1
  br i1 %4, label %._crit_edge, label %.lr.ph

.lr.ph:                                           ; preds = %2, %tailrecurse
  %.tr18 = phi ptr [ %20, %tailrecurse ], [ %0, %2 ]
  %5 = icmp eq ptr %.tr18, null
  br i1 %5, label %._crit_edge, label %6

6:                                                ; preds = %.lr.ph
  %7 = tail call i32 @st__add_direct(ptr noundef %1, ptr noundef nonnull %.tr18, ptr noundef null) #23
  %8 = icmp eq i32 %7, -10000
  br i1 %8, label %._crit_edge, label %9

9:                                                ; preds = %6
  %10 = load i32, ptr %.tr18, align 8
  %11 = icmp eq i32 %10, 2147483647
  br i1 %11, label %._crit_edge, label %12

12:                                               ; preds = %9
  %13 = getelementptr inbounds nuw i8, ptr %.tr18, i64 16
  %14 = load ptr, ptr %13, align 8
  %15 = tail call i32 @cuddCollectNodes(ptr noundef %14, ptr noundef %1)
  %.not.not = icmp eq i32 %15, 0
  br i1 %.not.not, label %._crit_edge, label %tailrecurse

tailrecurse:                                      ; preds = %12
  %16 = getelementptr inbounds nuw i8, ptr %.tr18, i64 24
  %17 = load ptr, ptr %16, align 8
  %18 = ptrtoint ptr %17 to i64
  %19 = and i64 %18, -2
  %20 = inttoptr i64 %19 to ptr
  %21 = tail call i32 @st__lookup(ptr noundef %1, ptr noundef %20, ptr noundef null) #23
  %22 = icmp eq i32 %21, 1
  br i1 %22, label %._crit_edge, label %.lr.ph

._crit_edge:                                      ; preds = %tailrecurse, %.lr.ph, %6, %9, %12, %2
  %.0 = phi i32 [ 1, %2 ], [ 0, %12 ], [ 1, %9 ], [ 0, %6 ], [ 0, %.lr.ph ], [ 1, %tailrecurse ]
  ret i32 %.0
}